target datalayout = "e-m:e-p270:32:32-p271:32:32-p272:64:64-i64:64-i128:128-f80:128-n8:16:32:64-S128"
target triple = "x86_64-pc-linux-gnu"

%struct.rb_vm_struct = type { i64, %struct.anon.0, ptr, i64, %struct.ccan_list_head, i32, i8, i64, ptr, [5 x i64], i64, i64, i64, i64, i64, i64, i64, i64, i64, ptr, ptr, ptr, %struct.anon.4, ptr, i32, %struct.ccan_list_head, %union.pthread_mutex_t, i64, i64, i64, i64, i32, %struct.anon.5, ptr, ptr, ptr, ptr, ptr, ptr, ptr, ptr, i64, [1023 x ptr], %struct.anon.6 }
%struct.anon.0 = type { %struct.ccan_list_head, i32, i32, ptr, ptr, %struct.anon.1, %struct.anon.3 }
%struct.anon.1 = type { %union.pthread_mutex_t, ptr, i32, %union.pthread_cond_t, i8 }
%union.pthread_cond_t = type { %struct.__pthread_cond_s }
%struct.__pthread_cond_s = type { %union.__atomic_wide_counter, %union.__atomic_wide_counter, [2 x i32], [2 x i32], i32, i32, [2 x i32] }
%union.__atomic_wide_counter = type { i64 }
%struct.anon.3 = type { %union.pthread_mutex_t, ptr, i8, %union.pthread_cond_t, i32, i32, i32, i32, %struct.ccan_list_head, i32, %struct.ccan_list_head, %struct.ccan_list_head, %struct.ccan_list_head, i8, %union.pthread_cond_t, %union.pthread_cond_t, i8, i32, i32 }
%struct.anon.4 = type { [65 x i64] }
%struct.ccan_list_head = type { %struct.ccan_list_node }
%struct.ccan_list_node = type { ptr, ptr }
%union.pthread_mutex_t = type { %struct.__pthread_mutex_s }
%struct.__pthread_mutex_s = type { i32, i32, i32, i32, i32, i16, i16, %struct.__pthread_internal_list }
%struct.__pthread_internal_list = type { ptr, ptr }
%struct.anon.5 = type { ptr, ptr }
%struct.anon.6 = type { i64, i64, i64, i64 }

@ruby_current_vm_ptr = external global ptr, align 8
@.str.299 = private unnamed_addr constant [26 x i8] c"too large allocation size\00", align 1

; Function Attrs: inlinehint nounwind sspstrong uwtable
define internal ptr @rb_current_vm() #2 {
  %1 = load ptr, ptr @ruby_current_vm_ptr, align 8, !tbaa !74
  ret ptr %1
}

; Function Attrs: nounwind sspstrong uwtable
define dso_local ptr @rb_gc_get_objspace() #0 {
  %1 = call ptr @rb_current_vm()
  %2 = getelementptr inbounds nuw %struct.rb_vm_struct, ptr %1, i32 0, i32 32
  %3 = getelementptr inbounds nuw %struct.anon.5, ptr %2, i32 0, i32 0
  %4 = load ptr, ptr %3, align 8, !tbaa !55
  ret ptr %4
}

; Function Attrs: nounwind sspstrong uwtable
define internal ptr @handle_malloc_failure(ptr noundef %0) #0 {
  %2 = alloca ptr, align 8
  store ptr %0, ptr %2, align 8, !tbaa !76
  %3 = load ptr, ptr %2, align 8, !tbaa !76
  %4 = icmp ne ptr %3, null
  %5 = xor i1 %4, true
  %6 = xor i1 %5, true
  %7 = zext i1 %6 to i32
  %8 = sext i32 %7 to i64
  %9 = call i64 @llvm.expect.i64(i64 %8, i64 1)
  %10 = icmp ne i64 %9, 0
  br i1 %10, label %11, label %13

11:                                               ; preds = %1
  %12 = load ptr, ptr %2, align 8, !tbaa !76
  ret ptr %12

13:                                               ; preds = %1
  call void @ruby_memerror() #46
  unreachable
}

; Function Attrs: nounwind sspstrong uwtable
define internal ptr @ruby_sized_xrealloc_body(ptr noundef %0, i64 noundef %1, i64 noundef %2) #0 {
  %4 = alloca ptr, align 8
  %5 = alloca i64, align 8
  %6 = alloca i64, align 8
  store ptr %0, ptr %4, align 8, !tbaa !76
  store i64 %1, ptr %5, align 8, !tbaa !18
  store i64 %2, ptr %6, align 8, !tbaa !18
  %7 = load i64, ptr %5, align 8, !tbaa !18
  %8 = icmp slt i64 %7, 0
  br i1 %8, label %9, label %10

9:                                                ; preds = %3
  call void @negative_size_allocation_error(ptr noundef @.str.299) #46
  unreachable

10:                                               ; preds = %3
  %11 = call ptr @rb_gc_get_objspace()
  %12 = load ptr, ptr %4, align 8, !tbaa !76
  %13 = load i64, ptr %5, align 8, !tbaa !18
  %14 = load i64, ptr %6, align 8, !tbaa !18
  %15 = call ptr @rb_gc_impl_realloc(ptr noundef %11, ptr noundef %12, i64 noundef %13, i64 noundef %14)
  ret ptr %15
}

; Function Attrs: nounwind sspstrong allocsize(1) uwtable
define dso_local nonnull ptr @ruby_sized_xrealloc(ptr noundef %0, i64 noundef %1, i64 noundef %2) #26 {
  %4 = alloca ptr, align 8
  %5 = alloca i64, align 8
  %6 = alloca i64, align 8
  store ptr %0, ptr %4, align 8, !tbaa !76
  store i64 %1, ptr %5, align 8, !tbaa !18
  store i64 %2, ptr %6, align 8, !tbaa !18
  %7 = load ptr, ptr %4, align 8, !tbaa !76
  %8 = load i64, ptr %5, align 8, !tbaa !18
  %9 = load i64, ptr %6, align 8, !tbaa !18
  %10 = call ptr @ruby_sized_xrealloc_body(ptr noundef %7, i64 noundef %8, i64 noundef %9)
  %11 = call ptr @handle_malloc_failure(ptr noundef %10)
  ret ptr %11
}

; Function Attrs: nounwind sspstrong allocsize(1) uwtable
define dso_local nonnull ptr @ruby_xrealloc(ptr noundef %0, i64 noundef %1) #26 {
  %3 = alloca ptr, align 8
  %4 = alloca i64, align 8
  store ptr %0, ptr %3, align 8, !tbaa !76
  store i64 %1, ptr %4, align 8, !tbaa !18
  %5 = load ptr, ptr %3, align 8, !tbaa !76
  %6 = load i64, ptr %4, align 8, !tbaa !18
  %7 = call nonnull ptr @ruby_sized_xrealloc(ptr noundef %5, i64 noundef %6, i64 noundef 0) #51
  ret ptr %7
}