; Function Attrs: nounwind sspstrong allocsize(1) uwtable
define dso_local noalias nonnull ptr @ruby_xrealloc(ptr noundef %0, i64 noundef %1) local_unnamed_addr #33 {
  %3 = icmp slt i64 %1, 0
  br i1 %3, label %4, label %ruby_sized_xrealloc_body.exit.i

4:                                                ; preds = %2
  tail call fastcc void @negative_size_allocation_error() #63
  unreachable

ruby_sized_xrealloc_body.exit.i:                  ; preds = %2
  %5 = load ptr, ptr @ruby_current_vm_ptr, align 8, !tbaa !62
  %6 = getelementptr inbounds nuw i8, ptr %5, i64 1296
  %7 = load ptr, ptr %6, align 8, !tbaa !63
  %8 = tail call fastcc noalias noundef ptr @rb_gc_impl_realloc(ptr noundef %7, ptr noundef %0, i64 noundef %1, i64 noundef 0)
  %.not.i.i = icmp eq ptr %8, null
  br i1 %.not.i.i, label %9, label %ruby_sized_xrealloc.exit, !prof !79

9:                                                ; preds = %ruby_sized_xrealloc_body.exit.i
  tail call fastcc void @ruby_memerror() #63
  unreachable

ruby_sized_xrealloc.exit:                         ; preds = %ruby_sized_xrealloc_body.exit.i
  ret ptr %8
}